; Function Attrs: nounwind uwtable
define dso_local void @multiCommand(ptr noundef %0) local_unnamed_addr #1 {
  %2 = getelementptr inbounds nuw i8, ptr %0, i64 8
  %3 = load i64, ptr %2, align 8, !tbaa !38
  %4 = and i64 %3, 8
  %.not = icmp eq i64 %4, 0
  br i1 %.not, label %6, label %5

5:                                                ; preds = %1
  tail call void @addReplyError(ptr noundef nonnull %0, ptr noundef nonnull @.str) #10
  br label %9

6:                                                ; preds = %1
  %7 = or disjoint i64 %3, 8
  store i64 %7, ptr %2, align 8, !tbaa !38
  %8 = load ptr, ptr @shared, align 8, !tbaa !81
  tail call void @addReply(ptr noundef nonnull %0, ptr noundef %8) #10
  br label %9

9:                                                ; preds = %6, %5
  ret void
}